target datalayout = "e-m:e-p270:32:32-p271:32:32-p272:64:64-i64:64-i128:128-f80:128-n8:16:32:64-S128"
target triple = "x86_64-pc-linux-gnu"

%struct.H5G_loc_t = type { ptr, ptr }
%struct.H5VL_loc_params_t = type { i32, i32, %union.anon }
%union.anon = type { %struct.H5VL_loc_by_idx }
%struct.H5VL_loc_by_idx = type { ptr, i32, i32, i64, i64 }
%struct.H5VL_loc_by_name = type { ptr, i64 }

@.str = private unnamed_addr constant [109 x i8] c"generated/home/dtcxzyw/WorkSpace/Projects/compilers/llvm-opt-benchmark/bench/hdf5/hdf5/src/H5VLnative_attr.c\00", align 1
@H5E_ARGS_g = external global i64, align 8
@H5E_BADTYPE_g = external global i64, align 8
@.str.1 = private unnamed_addr constant [26 x i8] c"not a file or file object\00", align 1
@H5P_CLS_ATTRIBUTE_ACCESS_ID_g = external global i64, align 8
@.str.3 = private unnamed_addr constant [46 x i8] c"AAPL is not an attribute access property list\00", align 1
@H5E_ATTR_g = external global i64, align 8
@H5E_VOL_g = external global i64, align 8
@H5E_UNSUPPORTED_g = external global i64, align 8
@__func__.H5VL__native_attr_open = private unnamed_addr constant [23 x i8] c"H5VL__native_attr_open\00", align 1
@H5E_CANTOPENOBJ_g = external global i64, align 8
@.str.9 = private unnamed_addr constant [31 x i8] c"unable to open attribute: '%s'\00", align 1
@.str.10 = private unnamed_addr constant [21 x i8] c"can't open attribute\00", align 1
@.str.11 = private unnamed_addr constant [25 x i8] c"unable to open attribute\00", align 1
@.str.12 = private unnamed_addr constant [34 x i8] c"unknown attribute open parameters\00", align 1

; Function Attrs: nounwind uwtable
define ptr @H5VL__native_attr_open(ptr noundef %0, ptr noundef %1, ptr noundef %2, i64 noundef %3, i64 noundef %4, ptr noundef %5) #0 {
  %7 = alloca ptr, align 8
  %8 = alloca ptr, align 8
  %9 = alloca ptr, align 8
  %10 = alloca i64, align 8
  %11 = alloca i64, align 8
  %12 = alloca ptr, align 8
  %13 = alloca ptr, align 8
  %14 = alloca %struct.H5G_loc_t, align 8
  %15 = alloca ptr, align 8
  %16 = alloca ptr, align 8
  %17 = alloca i8, align 1
  store ptr %0, ptr %7, align 8
  store ptr %1, ptr %8, align 8
  store ptr %2, ptr %9, align 8
  store i64 %3, ptr %10, align 8
  store i64 %4, ptr %11, align 8
  store ptr %5, ptr %12, align 8
  store ptr null, ptr %15, align 8
  store i8 0, ptr %17, align 1
  %18 = load ptr, ptr %7, align 8
  %19 = load ptr, ptr %8, align 8
  %20 = getelementptr inbounds %struct.H5VL_loc_params_t, ptr %19, i32 0, i32 0
  %21 = load i32, ptr %20, align 8
  %22 = call i32 @H5G_loc_real(ptr noundef %18, i32 noundef %21, ptr noundef %14)
  %23 = icmp slt i32 %22, 0
  br i1 %23, label %24, label %39

24:                                               ; preds = %6
  br label %25

25:                                               ; preds = %24
  br label %26

26:                                               ; preds = %25
  br label %27

27:                                               ; preds = %26
  %28 = load i64, ptr @H5E_ARGS_g, align 8
  %29 = load i64, ptr @H5E_BADTYPE_g, align 8
  %30 = call i32 (ptr, ptr, i32, i64, i64, ptr, ...) @H5E_printf_stack(ptr noundef @.str, ptr noundef @__func__.H5VL__native_attr_open, i32 noundef 155, i64 noundef %28, i64 noundef %29, ptr noundef @.str.1)
  br label %31

31:                                               ; preds = %27
  store i8 1, ptr %17, align 1
  %32 = load i8, ptr %17, align 1
  %33 = trunc i8 %32 to i1
  %34 = zext i1 %33 to i8
  store i8 %34, ptr %17, align 1
  br label %35

35:                                               ; preds = %31
  br label %36

36:                                               ; preds = %35
  store ptr null, ptr %16, align 8
  br label %173

37:                                               ; No predecessors!
  br label %38

38:                                               ; preds = %37
  br label %39

39:                                               ; preds = %38, %6
  %40 = load i64, ptr %10, align 8
  %41 = load i64, ptr @H5P_CLS_ATTRIBUTE_ACCESS_ID_g, align 8
  %42 = call ptr @H5P_object_verify(i64 noundef %40, i64 noundef %41)
  store ptr %42, ptr %13, align 8
  %43 = icmp eq ptr null, %42
  br i1 %43, label %44, label %59

44:                                               ; preds = %39
  br label %45

45:                                               ; preds = %44
  br label %46

46:                                               ; preds = %45
  br label %47

47:                                               ; preds = %46
  %48 = load i64, ptr @H5E_ARGS_g, align 8
  %49 = load i64, ptr @H5E_BADTYPE_g, align 8
  %50 = call i32 (ptr, ptr, i32, i64, i64, ptr, ...) @H5E_printf_stack(ptr noundef @.str, ptr noundef @__func__.H5VL__native_attr_open, i32 noundef 158, i64 noundef %48, i64 noundef %49, ptr noundef @.str.3)
  br label %51

51:                                               ; preds = %47
  store i8 1, ptr %17, align 1
  %52 = load i8, ptr %17, align 1
  %53 = trunc i8 %52 to i1
  %54 = zext i1 %53 to i8
  store i8 %54, ptr %17, align 1
  br label %55

55:                                               ; preds = %51
  br label %56

56:                                               ; preds = %55
  store ptr null, ptr %16, align 8
  br label %173

57:                                               ; No predecessors!
  br label %58

58:                                               ; preds = %57
  br label %59

59:                                               ; preds = %58, %39
  %60 = load ptr, ptr %8, align 8
  %61 = getelementptr inbounds %struct.H5VL_loc_params_t, ptr %60, i32 0, i32 1
  %62 = load i32, ptr %61, align 4
  %63 = icmp eq i32 %62, 0
  br i1 %63, label %64, label %85

64:                                               ; preds = %59
  %65 = load ptr, ptr %9, align 8
  %66 = call ptr @H5A__open(ptr noundef %14, ptr noundef %65)
  store ptr %66, ptr %15, align 8
  %67 = icmp eq ptr null, %66
  br i1 %67, label %68, label %84

68:                                               ; preds = %64
  br label %69

69:                                               ; preds = %68
  br label %70

70:                                               ; preds = %69
  br label %71

71:                                               ; preds = %70
  %72 = load i64, ptr @H5E_ATTR_g, align 8
  %73 = load i64, ptr @H5E_CANTOPENOBJ_g, align 8
  %74 = load ptr, ptr %9, align 8
  %75 = call i32 (ptr, ptr, i32, i64, i64, ptr, ...) @H5E_printf_stack(ptr noundef @.str, ptr noundef @__func__.H5VL__native_attr_open, i32 noundef 164, i64 noundef %72, i64 noundef %73, ptr noundef @.str.9, ptr noundef %74)
  br label %76

76:                                               ; preds = %71
  store i8 1, ptr %17, align 1
  %77 = load i8, ptr %17, align 1
  %78 = trunc i8 %77 to i1
  %79 = zext i1 %78 to i8
  store i8 %79, ptr %17, align 1
  br label %80

80:                                               ; preds = %76
  br label %81

81:                                               ; preds = %80
  store ptr null, ptr %16, align 8
  br label %173

82:                                               ; No predecessors!
  br label %83

83:                                               ; preds = %82
  br label %84

84:                                               ; preds = %83, %64
  br label %171

85:                                               ; preds = %59
  %86 = load ptr, ptr %8, align 8
  %87 = getelementptr inbounds %struct.H5VL_loc_params_t, ptr %86, i32 0, i32 1
  %88 = load i32, ptr %87, align 4
  %89 = icmp eq i32 %88, 1
  br i1 %89, label %90, label %114

90:                                               ; preds = %85
  %91 = load ptr, ptr %8, align 8
  %92 = getelementptr inbounds %struct.H5VL_loc_params_t, ptr %91, i32 0, i32 2
  %93 = getelementptr inbounds %struct.H5VL_loc_by_name, ptr %92, i32 0, i32 0
  %94 = load ptr, ptr %93, align 8
  %95 = load ptr, ptr %9, align 8
  %96 = call ptr @H5A__open_by_name(ptr noundef %14, ptr noundef %94, ptr noundef %95)
  store ptr %96, ptr %15, align 8
  %97 = icmp eq ptr null, %96
  br i1 %97, label %98, label %113

98:                                               ; preds = %90
  br label %99

99:                                               ; preds = %98
  br label %100

100:                                              ; preds = %99
  br label %101

101:                                              ; preds = %100
  %102 = load i64, ptr @H5E_ATTR_g, align 8
  %103 = load i64, ptr @H5E_CANTOPENOBJ_g, align 8
  %104 = call i32 (ptr, ptr, i32, i64, i64, ptr, ...) @H5E_printf_stack(ptr noundef @.str, ptr noundef @__func__.H5VL__native_attr_open, i32 noundef 170, i64 noundef %102, i64 noundef %103, ptr noundef @.str.10)
  br label %105

105:                                              ; preds = %101
  store i8 1, ptr %17, align 1
  %106 = load i8, ptr %17, align 1
  %107 = trunc i8 %106 to i1
  %108 = zext i1 %107 to i8
  store i8 %108, ptr %17, align 1
  br label %109

109:                                              ; preds = %105
  br label %110

110:                                              ; preds = %109
  store ptr null, ptr %16, align 8
  br label %173

111:                                              ; No predecessors!
  br label %112

112:                                              ; preds = %111
  br label %113

113:                                              ; preds = %112, %90
  br label %170

114:                                              ; preds = %85
  %115 = load ptr, ptr %8, align 8
  %116 = getelementptr inbounds %struct.H5VL_loc_params_t, ptr %115, i32 0, i32 1
  %117 = load i32, ptr %116, align 4
  %118 = icmp eq i32 %117, 2
  br i1 %118, label %119, label %154

119:                                              ; preds = %114
  %120 = load ptr, ptr %8, align 8
  %121 = getelementptr inbounds %struct.H5VL_loc_params_t, ptr %120, i32 0, i32 2
  %122 = getelementptr inbounds %struct.H5VL_loc_by_idx, ptr %121, i32 0, i32 0
  %123 = load ptr, ptr %122, align 8
  %124 = load ptr, ptr %8, align 8
  %125 = getelementptr inbounds %struct.H5VL_loc_params_t, ptr %124, i32 0, i32 2
  %126 = getelementptr inbounds %struct.H5VL_loc_by_idx, ptr %125, i32 0, i32 1
  %127 = load i32, ptr %126, align 8
  %128 = load ptr, ptr %8, align 8
  %129 = getelementptr inbounds %struct.H5VL_loc_params_t, ptr %128, i32 0, i32 2
  %130 = getelementptr inbounds %struct.H5VL_loc_by_idx, ptr %129, i32 0, i32 2
  %131 = load i32, ptr %130, align 4
  %132 = load ptr, ptr %8, align 8
  %133 = getelementptr inbounds %struct.H5VL_loc_params_t, ptr %132, i32 0, i32 2
  %134 = getelementptr inbounds %struct.H5VL_loc_by_idx, ptr %133, i32 0, i32 3
  %135 = load i64, ptr %134, align 8
  %136 = call ptr @H5A__open_by_idx(ptr noundef %14, ptr noundef %123, i32 noundef %127, i32 noundef %131, i64 noundef %135)
  store ptr %136, ptr %15, align 8
  %137 = icmp eq ptr null, %136
  br i1 %137, label %138, label %153

138:                                              ; preds = %119
  br label %139

139:                                              ; preds = %138
  br label %140

140:                                              ; preds = %139
  br label %141

141:                                              ; preds = %140
  %142 = load i64, ptr @H5E_ATTR_g, align 8
  %143 = load i64, ptr @H5E_CANTOPENOBJ_g, align 8
  %144 = call i32 (ptr, ptr, i32, i64, i64, ptr, ...) @H5E_printf_stack(ptr noundef @.str, ptr noundef @__func__.H5VL__native_attr_open, i32 noundef 178, i64 noundef %142, i64 noundef %143, ptr noundef @.str.11)
  br label %145

145:                                              ; preds = %141
  store i8 1, ptr %17, align 1
  %146 = load i8, ptr %17, align 1
  %147 = trunc i8 %146 to i1
  %148 = zext i1 %147 to i8
  store i8 %148, ptr %17, align 1
  br label %149

149:                                              ; preds = %145
  br label %150

150:                                              ; preds = %149
  store ptr null, ptr %16, align 8
  br label %173

151:                                              ; No predecessors!
  br label %152

152:                                              ; preds = %151
  br label %153

153:                                              ; preds = %152, %119
  br label %169

154:                                              ; preds = %114
  br label %155

155:                                              ; preds = %154
  br label %156

156:                                              ; preds = %155
  br label %157

157:                                              ; preds = %156
  %158 = load i64, ptr @H5E_VOL_g, align 8
  %159 = load i64, ptr @H5E_UNSUPPORTED_g, align 8
  %160 = call i32 (ptr, ptr, i32, i64, i64, ptr, ...) @H5E_printf_stack(ptr noundef @.str, ptr noundef @__func__.H5VL__native_attr_open, i32 noundef 181, i64 noundef %158, i64 noundef %159, ptr noundef @.str.12)
  br label %161

161:                                              ; preds = %157
  store i8 1, ptr %17, align 1
  %162 = load i8, ptr %17, align 1
  %163 = trunc i8 %162 to i1
  %164 = zext i1 %163 to i8
  store i8 %164, ptr %17, align 1
  br label %165

165:                                              ; preds = %161
  br label %166

166:                                              ; preds = %165
  store ptr null, ptr %16, align 8
  br label %173

167:                                              ; No predecessors!
  br label %168

168:                                              ; preds = %167
  br label %169

169:                                              ; preds = %168, %153
  br label %170

170:                                              ; preds = %169, %113
  br label %171

171:                                              ; preds = %170, %84
  %172 = load ptr, ptr %15, align 8
  store ptr %172, ptr %16, align 8
  br label %173

173:                                              ; preds = %171, %166, %150, %110, %81, %56, %36
  %174 = load ptr, ptr %16, align 8
  ret ptr %174
}