; Function Attrs: nounwind uwtable
define ptr @H5VL__native_attr_open(ptr noundef %0, ptr nocapture noundef readonly %1, ptr noundef %2, i64 noundef %3, i64 noundef %4, ptr nocapture noundef readnone %5) local_unnamed_addr #0 {
  %7 = alloca %struct.H5G_loc_t, align 8
  %8 = load i32, ptr %1, align 8
  %9 = call i32 @H5G_loc_real(ptr noundef %0, i32 noundef %8, ptr noundef nonnull %7) #5
  %10 = icmp slt i32 %9, 0
  br i1 %10, label %11, label %15

11:                                               ; preds = %6
  %12 = load i64, ptr @H5E_ARGS_g, align 8
  %13 = load i64, ptr @H5E_BADTYPE_g, align 8
  %14 = call i32 (ptr, ptr, i32, i64, i64, ptr, ...) @H5E_printf_stack(ptr noundef nonnull @.str, ptr noundef nonnull @__func__.H5VL__native_attr_open, i32 noundef 155, i64 noundef %12, i64 noundef %13, ptr noundef nonnull @.str.1) #5
  br label %61

15:                                               ; preds = %6
  %16 = load i64, ptr @H5P_CLS_ATTRIBUTE_ACCESS_ID_g, align 8
  %17 = call ptr @H5P_object_verify(i64 noundef %3, i64 noundef %16) #5
  %18 = icmp eq ptr %17, null
  br i1 %18, label %19, label %23

19:                                               ; preds = %15
  %20 = load i64, ptr @H5E_ARGS_g, align 8
  %21 = load i64, ptr @H5E_BADTYPE_g, align 8
  %22 = call i32 (ptr, ptr, i32, i64, i64, ptr, ...) @H5E_printf_stack(ptr noundef nonnull @.str, ptr noundef nonnull @__func__.H5VL__native_attr_open, i32 noundef 158, i64 noundef %20, i64 noundef %21, ptr noundef nonnull @.str.3) #5
  br label %61

23:                                               ; preds = %15
  %24 = getelementptr inbounds i8, ptr %1, i64 4
  %25 = load i32, ptr %24, align 4
  switch i32 %25, label %57 [
    i32 0, label %26
    i32 1, label %33
    i32 2, label %42
  ]

26:                                               ; preds = %23
  %27 = call ptr @H5A__open(ptr noundef nonnull %7, ptr noundef %2) #5
  %28 = icmp eq ptr %27, null
  br i1 %28, label %29, label %61

29:                                               ; preds = %26
  %30 = load i64, ptr @H5E_ATTR_g, align 8
  %31 = load i64, ptr @H5E_CANTOPENOBJ_g, align 8
  %32 = call i32 (ptr, ptr, i32, i64, i64, ptr, ...) @H5E_printf_stack(ptr noundef nonnull @.str, ptr noundef nonnull @__func__.H5VL__native_attr_open, i32 noundef 164, i64 noundef %30, i64 noundef %31, ptr noundef nonnull @.str.9, ptr noundef %2) #5
  br label %61

33:                                               ; preds = %23
  %34 = getelementptr inbounds i8, ptr %1, i64 8
  %35 = load ptr, ptr %34, align 8
  %36 = call ptr @H5A__open_by_name(ptr noundef nonnull %7, ptr noundef %35, ptr noundef %2) #5
  %37 = icmp eq ptr %36, null
  br i1 %37, label %38, label %61

38:                                               ; preds = %33
  %39 = load i64, ptr @H5E_ATTR_g, align 8
  %40 = load i64, ptr @H5E_CANTOPENOBJ_g, align 8
  %41 = call i32 (ptr, ptr, i32, i64, i64, ptr, ...) @H5E_printf_stack(ptr noundef nonnull @.str, ptr noundef nonnull @__func__.H5VL__native_attr_open, i32 noundef 170, i64 noundef %39, i64 noundef %40, ptr noundef nonnull @.str.10) #5
  br label %61

42:                                               ; preds = %23
  %43 = getelementptr inbounds i8, ptr %1, i64 8
  %44 = load ptr, ptr %43, align 8
  %45 = getelementptr inbounds i8, ptr %1, i64 16
  %46 = load i32, ptr %45, align 8
  %47 = getelementptr inbounds i8, ptr %1, i64 20
  %48 = load i32, ptr %47, align 4
  %49 = getelementptr inbounds i8, ptr %1, i64 24
  %50 = load i64, ptr %49, align 8
  %51 = call ptr @H5A__open_by_idx(ptr noundef nonnull %7, ptr noundef %44, i32 noundef %46, i32 noundef %48, i64 noundef %50) #5
  %52 = icmp eq ptr %51, null
  br i1 %52, label %53, label %61

53:                                               ; preds = %42
  %54 = load i64, ptr @H5E_ATTR_g, align 8
  %55 = load i64, ptr @H5E_CANTOPENOBJ_g, align 8
  %56 = call i32 (ptr, ptr, i32, i64, i64, ptr, ...) @H5E_printf_stack(ptr noundef nonnull @.str, ptr noundef nonnull @__func__.H5VL__native_attr_open, i32 noundef 178, i64 noundef %54, i64 noundef %55, ptr noundef nonnull @.str.11) #5
  br label %61

57:                                               ; preds = %23
  %58 = load i64, ptr @H5E_VOL_g, align 8
  %59 = load i64, ptr @H5E_UNSUPPORTED_g, align 8
  %60 = call i32 (ptr, ptr, i32, i64, i64, ptr, ...) @H5E_printf_stack(ptr noundef nonnull @.str, ptr noundef nonnull @__func__.H5VL__native_attr_open, i32 noundef 181, i64 noundef %58, i64 noundef %59, ptr noundef nonnull @.str.12) #5
  br label %61

61:                                               ; preds = %26, %42, %33, %57, %53, %38, %29, %19, %11
  %.0 = phi ptr [ null, %11 ], [ null, %19 ], [ null, %29 ], [ null, %38 ], [ null, %53 ], [ null, %57 ], [ %27, %26 ], [ %36, %33 ], [ %51, %42 ]
  ret ptr %.0
}